target datalayout = "e-m:e-p270:32:32-p271:32:32-p272:64:64-i64:64-i128:128-f80:128-n8:16:32:64-S128"
target triple = "x86_64-pc-linux-gnu"

%"class.std::__cxx11::basic_string" = type { %"struct.std::__cxx11::basic_string<char>::_Alloc_hider", i64, %union.anon }
%"struct.std::__cxx11::basic_string<char>::_Alloc_hider" = type { ptr }
%union.anon = type { i64, [8 x i8] }
%"struct.pxrInternal_v0_24__pxrReserved__::HgiShaderFunctionBufferDesc" = type <{ %"class.std::__cxx11::basic_string", %"class.std::__cxx11::basic_string", i32, i32, i32, i8, [3 x i8] }>
%"struct.pxrInternal_v0_24__pxrReserved__::HgiShaderFunctionComputeDesc" = type { %"class.pxrInternal_v0_24__pxrReserved__::GfVec3i" }
%"class.pxrInternal_v0_24__pxrReserved__::GfVec3i" = type { [3 x i32] }
%"struct.pxrInternal_v0_24__pxrReserved__::HgiShaderFunctionTessellationDesc" = type { i32, i32, i32, %"class.std::__cxx11::basic_string", %"class.std::__cxx11::basic_string" }
%"struct.pxrInternal_v0_24__pxrReserved__::HgiShaderFunctionDesc" = type <{ %"class.std::__cxx11::basic_string", i32, [4 x i8], ptr, ptr, ptr, %"class.std::vector.3", %"class.std::vector.8", %"class.std::vector.13", %"class.std::vector.13", %"class.std::vector.13", %"class.std::vector.13", %"class.std::vector.18", %"class.std::vector.18", %"struct.pxrInternal_v0_24__pxrReserved__::HgiShaderFunctionComputeDesc", [4 x i8], %"struct.pxrInternal_v0_24__pxrReserved__::HgiShaderFunctionTessellationDesc", %"struct.pxrInternal_v0_24__pxrReserved__::HgiShaderFunctionGeometryDesc", %"struct.pxrInternal_v0_24__pxrReserved__::HgiShaderFunctionFragmentDesc", [7 x i8] }>
%"class.std::vector.3" = type { %"struct.std::_Vector_base.4" }
%"struct.std::_Vector_base.4" = type { %"struct.std::_Vector_base<pxrInternal_v0_24__pxrReserved__::HgiShaderFunctionTextureDesc, std::allocator<pxrInternal_v0_24__pxrReserved__::HgiShaderFunctionTextureDesc>>::_Vector_impl" }
%"struct.std::_Vector_base<pxrInternal_v0_24__pxrReserved__::HgiShaderFunctionTextureDesc, std::allocator<pxrInternal_v0_24__pxrReserved__::HgiShaderFunctionTextureDesc>>::_Vector_impl" = type { %"struct.std::_Vector_base<pxrInternal_v0_24__pxrReserved__::HgiShaderFunctionTextureDesc, std::allocator<pxrInternal_v0_24__pxrReserved__::HgiShaderFunctionTextureDesc>>::_Vector_impl_data" }
%"struct.std::_Vector_base<pxrInternal_v0_24__pxrReserved__::HgiShaderFunctionTextureDesc, std::allocator<pxrInternal_v0_24__pxrReserved__::HgiShaderFunctionTextureDesc>>::_Vector_impl_data" = type { ptr, ptr, ptr }
%"class.std::vector.8" = type { %"struct.std::_Vector_base.9" }
%"struct.std::_Vector_base.9" = type { %"struct.std::_Vector_base<pxrInternal_v0_24__pxrReserved__::HgiShaderFunctionBufferDesc, std::allocator<pxrInternal_v0_24__pxrReserved__::HgiShaderFunctionBufferDesc>>::_Vector_impl" }
%"struct.std::_Vector_base<pxrInternal_v0_24__pxrReserved__::HgiShaderFunctionBufferDesc, std::allocator<pxrInternal_v0_24__pxrReserved__::HgiShaderFunctionBufferDesc>>::_Vector_impl" = type { %"struct.std::_Vector_base<pxrInternal_v0_24__pxrReserved__::HgiShaderFunctionBufferDesc, std::allocator<pxrInternal_v0_24__pxrReserved__::HgiShaderFunctionBufferDesc>>::_Vector_impl_data" }
%"struct.std::_Vector_base<pxrInternal_v0_24__pxrReserved__::HgiShaderFunctionBufferDesc, std::allocator<pxrInternal_v0_24__pxrReserved__::HgiShaderFunctionBufferDesc>>::_Vector_impl_data" = type { ptr, ptr, ptr }
%"class.std::vector.13" = type { %"struct.std::_Vector_base.14" }
%"struct.std::_Vector_base.14" = type { %"struct.std::_Vector_base<pxrInternal_v0_24__pxrReserved__::HgiShaderFunctionParamDesc, std::allocator<pxrInternal_v0_24__pxrReserved__::HgiShaderFunctionParamDesc>>::_Vector_impl" }
%"struct.std::_Vector_base<pxrInternal_v0_24__pxrReserved__::HgiShaderFunctionParamDesc, std::allocator<pxrInternal_v0_24__pxrReserved__::HgiShaderFunctionParamDesc>>::_Vector_impl" = type { %"struct.std::_Vector_base<pxrInternal_v0_24__pxrReserved__::HgiShaderFunctionParamDesc, std::allocator<pxrInternal_v0_24__pxrReserved__::HgiShaderFunctionParamDesc>>::_Vector_impl_data" }
%"struct.std::_Vector_base<pxrInternal_v0_24__pxrReserved__::HgiShaderFunctionParamDesc, std::allocator<pxrInternal_v0_24__pxrReserved__::HgiShaderFunctionParamDesc>>::_Vector_impl_data" = type { ptr, ptr, ptr }
%"class.std::vector.18" = type { %"struct.std::_Vector_base.19" }
%"struct.std::_Vector_base.19" = type { %"struct.std::_Vector_base<pxrInternal_v0_24__pxrReserved__::HgiShaderFunctionParamBlockDesc, std::allocator<pxrInternal_v0_24__pxrReserved__::HgiShaderFunctionParamBlockDesc>>::_Vector_impl" }
%"struct.std::_Vector_base<pxrInternal_v0_24__pxrReserved__::HgiShaderFunctionParamBlockDesc, std::allocator<pxrInternal_v0_24__pxrReserved__::HgiShaderFunctionParamBlockDesc>>::_Vector_impl" = type { %"struct.std::_Vector_base<pxrInternal_v0_24__pxrReserved__::HgiShaderFunctionParamBlockDesc, std::allocator<pxrInternal_v0_24__pxrReserved__::HgiShaderFunctionParamBlockDesc>>::_Vector_impl_data" }
%"struct.std::_Vector_base<pxrInternal_v0_24__pxrReserved__::HgiShaderFunctionParamBlockDesc, std::allocator<pxrInternal_v0_24__pxrReserved__::HgiShaderFunctionParamBlockDesc>>::_Vector_impl_data" = type { ptr, ptr, ptr }
%"struct.pxrInternal_v0_24__pxrReserved__::HgiShaderFunctionGeometryDesc" = type { i32, i32, %"class.std::__cxx11::basic_string" }
%"struct.pxrInternal_v0_24__pxrReserved__::HgiShaderFunctionFragmentDesc" = type { i8 }
%"class.__gnu_cxx::__normal_iterator.26" = type { ptr }

@_ZN32pxrInternal_v0_24__pxrReserved__27HgiShaderFunctionBufferDescC1Ev = unnamed_addr alias void (ptr), ptr @_ZN32pxrInternal_v0_24__pxrReserved__27HgiShaderFunctionBufferDescC2Ev

; Function Attrs: mustprogress nounwind uwtable
define linkonce_odr void @_ZN32pxrInternal_v0_24__pxrReserved__27HgiShaderFunctionBufferDescC2EOS0_(ptr noundef nonnull align 8 dereferenceable(77) %0, ptr noundef nonnull align 8 dereferenceable(77) %1) unnamed_addr #0 comdat align 2 {
  %3 = alloca ptr, align 8
  %4 = alloca ptr, align 8
  store ptr %0, ptr %3, align 8
  store ptr %1, ptr %4, align 8
  %5 = load ptr, ptr %3, align 8
  %6 = getelementptr inbounds nuw %"struct.pxrInternal_v0_24__pxrReserved__::HgiShaderFunctionBufferDesc", ptr %5, i32 0, i32 0
  %7 = load ptr, ptr %4, align 8
  %8 = getelementptr inbounds nuw %"struct.pxrInternal_v0_24__pxrReserved__::HgiShaderFunctionBufferDesc", ptr %7, i32 0, i32 0
  call void @_ZNSt7__cxx1112basic_stringIcSt11char_traitsIcESaIcEEC1EOS4_(ptr noundef nonnull align 8 dereferenceable(32) %6, ptr noundef nonnull align 8 dereferenceable(32) %8) #10
  %9 = getelementptr inbounds nuw %"struct.pxrInternal_v0_24__pxrReserved__::HgiShaderFunctionBufferDesc", ptr %5, i32 0, i32 1
  %10 = load ptr, ptr %4, align 8
  %11 = getelementptr inbounds nuw %"struct.pxrInternal_v0_24__pxrReserved__::HgiShaderFunctionBufferDesc", ptr %10, i32 0, i32 1
  call void @_ZNSt7__cxx1112basic_stringIcSt11char_traitsIcESaIcEEC1EOS4_(ptr noundef nonnull align 8 dereferenceable(32) %9, ptr noundef nonnull align 8 dereferenceable(32) %11) #10
  %12 = getelementptr inbounds nuw %"struct.pxrInternal_v0_24__pxrReserved__::HgiShaderFunctionBufferDesc", ptr %5, i32 0, i32 2
  %13 = load ptr, ptr %4, align 8
  %14 = getelementptr inbounds nuw %"struct.pxrInternal_v0_24__pxrReserved__::HgiShaderFunctionBufferDesc", ptr %13, i32 0, i32 2
  call void @llvm.memcpy.p0.p0.i64(ptr align 8 %12, ptr align 8 %14, i64 13, i1 false)
  ret void
}

; Function Attrs: mustprogress nounwind uwtable
define linkonce_odr noundef nonnull align 8 dereferenceable(77) ptr @_ZNK9__gnu_cxx17__normal_iteratorIPN32pxrInternal_v0_24__pxrReserved__27HgiShaderFunctionBufferDescESt6vectorIS2_SaIS2_EEEdeEv(ptr noundef nonnull align 8 dereferenceable(8) %0) #0 comdat align 2 {
  %2 = alloca ptr, align 8
  store ptr %0, ptr %2, align 8
  %3 = load ptr, ptr %2, align 8
  %4 = getelementptr inbounds nuw %"class.__gnu_cxx::__normal_iterator.26", ptr %3, i32 0, i32 0
  %5 = load ptr, ptr %4, align 8
  ret ptr %5
}

; Function Attrs: mustprogress nounwind uwtable
define linkonce_odr ptr @_ZNK9__gnu_cxx17__normal_iteratorIPN32pxrInternal_v0_24__pxrReserved__27HgiShaderFunctionBufferDescESt6vectorIS2_SaIS2_EEEmiEl(ptr noundef nonnull align 8 dereferenceable(8) %0, i64 noundef %1) #0 comdat align 2 {
  %3 = alloca %"class.__gnu_cxx::__normal_iterator.26", align 8
  %4 = alloca ptr, align 8
  %5 = alloca i64, align 8
  %6 = alloca ptr, align 8
  store ptr %0, ptr %4, align 8
  store i64 %1, ptr %5, align 8
  %7 = load ptr, ptr %4, align 8
  %8 = getelementptr inbounds nuw %"class.__gnu_cxx::__normal_iterator.26", ptr %7, i32 0, i32 0
  %9 = load ptr, ptr %8, align 8
  %10 = load i64, ptr %5, align 8
  %11 = sub i64 0, %10
  %12 = getelementptr inbounds %"struct.pxrInternal_v0_24__pxrReserved__::HgiShaderFunctionBufferDesc", ptr %9, i64 %11
  store ptr %12, ptr %6, align 8
  call void @_ZN9__gnu_cxx17__normal_iteratorIPN32pxrInternal_v0_24__pxrReserved__27HgiShaderFunctionBufferDescESt6vectorIS2_SaIS2_EEEC2ERKS3_(ptr noundef nonnull align 8 dereferenceable(8) %3, ptr noundef nonnull align 8 dereferenceable(8) %6) #10
  %13 = getelementptr inbounds nuw %"class.__gnu_cxx::__normal_iterator.26", ptr %3, i32 0, i32 0
  %14 = load ptr, ptr %13, align 8
  ret ptr %14
}

; Function Attrs: mustprogress nounwind uwtable
define linkonce_odr void @_ZN9__gnu_cxx17__normal_iteratorIPN32pxrInternal_v0_24__pxrReserved__27HgiShaderFunctionBufferDescESt6vectorIS2_SaIS2_EEEC2ERKS3_(ptr noundef nonnull align 8 dereferenceable(8) %0, ptr noundef nonnull align 8 dereferenceable(8) %1) unnamed_addr #0 comdat align 2 {
  %3 = alloca ptr, align 8
  %4 = alloca ptr, align 8
  store ptr %0, ptr %3, align 8
  store ptr %1, ptr %4, align 8
  %5 = load ptr, ptr %3, align 8
  %6 = getelementptr inbounds nuw %"class.__gnu_cxx::__normal_iterator.26", ptr %5, i32 0, i32 0
  %7 = load ptr, ptr %4, align 8
  %8 = load ptr, ptr %7, align 8
  store ptr %8, ptr %6, align 8
  ret void
}

; Function Attrs: mustprogress nounwind uwtable
define linkonce_odr void @_ZNSt15__new_allocatorIN32pxrInternal_v0_24__pxrReserved__27HgiShaderFunctionBufferDescEE9constructIS1_JS1_EEEvPT_DpOT0_(ptr noundef nonnull align 1 dereferenceable(1) %0, ptr noundef %1, ptr noundef nonnull align 8 dereferenceable(77) %2) #0 comdat align 2 {
  %4 = alloca ptr, align 8
  %5 = alloca ptr, align 8
  %6 = alloca ptr, align 8
  store ptr %0, ptr %4, align 8
  store ptr %1, ptr %5, align 8
  store ptr %2, ptr %6, align 8
  %7 = load ptr, ptr %5, align 8
  %8 = load ptr, ptr %6, align 8
  call void @_ZN32pxrInternal_v0_24__pxrReserved__27HgiShaderFunctionBufferDescC2EOS0_(ptr noundef nonnull align 8 dereferenceable(77) %7, ptr noundef nonnull align 8 dereferenceable(77) %8) #10
  ret void
}

; Function Attrs: mustprogress nounwind uwtable
define linkonce_odr noundef nonnull align 8 dereferenceable(77) ptr @_ZNSt6vectorIN32pxrInternal_v0_24__pxrReserved__27HgiShaderFunctionBufferDescESaIS1_EE4backEv(ptr noundef nonnull align 8 dereferenceable(24) %0) #0 comdat align 2 {
  %2 = alloca ptr, align 8
  %3 = alloca %"class.__gnu_cxx::__normal_iterator.26", align 8
  %4 = alloca %"class.__gnu_cxx::__normal_iterator.26", align 8
  store ptr %0, ptr %2, align 8
  %5 = load ptr, ptr %2, align 8
  %6 = call ptr @_ZNSt6vectorIN32pxrInternal_v0_24__pxrReserved__27HgiShaderFunctionBufferDescESaIS1_EE3endEv(ptr noundef nonnull align 8 dereferenceable(24) %5) #10
  %7 = getelementptr inbounds nuw %"class.__gnu_cxx::__normal_iterator.26", ptr %4, i32 0, i32 0
  store ptr %6, ptr %7, align 8
  %8 = call ptr @_ZNK9__gnu_cxx17__normal_iteratorIPN32pxrInternal_v0_24__pxrReserved__27HgiShaderFunctionBufferDescESt6vectorIS2_SaIS2_EEEmiEl(ptr noundef nonnull align 8 dereferenceable(8) %4, i64 noundef 1) #10
  %9 = getelementptr inbounds nuw %"class.__gnu_cxx::__normal_iterator.26", ptr %3, i32 0, i32 0
  store ptr %8, ptr %9, align 8
  %10 = call noundef nonnull align 8 dereferenceable(77) ptr @_ZNK9__gnu_cxx17__normal_iteratorIPN32pxrInternal_v0_24__pxrReserved__27HgiShaderFunctionBufferDescESt6vectorIS2_SaIS2_EEEdeEv(ptr noundef nonnull align 8 dereferenceable(8) %3) #10
  ret ptr %10
}

; Function Attrs: mustprogress nounwind uwtable
define linkonce_odr ptr @_ZNSt6vectorIN32pxrInternal_v0_24__pxrReserved__27HgiShaderFunctionBufferDescESaIS1_EE3endEv(ptr noundef nonnull align 8 dereferenceable(24) %0) #0 comdat align 2 {
  %2 = alloca %"class.__gnu_cxx::__normal_iterator.26", align 8
  %3 = alloca ptr, align 8
  store ptr %0, ptr %3, align 8
  %4 = load ptr, ptr %3, align 8
  %5 = getelementptr inbounds nuw %"struct.std::_Vector_base.9", ptr %4, i32 0, i32 0
  %6 = getelementptr inbounds nuw %"struct.std::_Vector_base<pxrInternal_v0_24__pxrReserved__::HgiShaderFunctionBufferDesc, std::allocator<pxrInternal_v0_24__pxrReserved__::HgiShaderFunctionBufferDesc>>::_Vector_impl_data", ptr %5, i32 0, i32 1
  call void @_ZN9__gnu_cxx17__normal_iteratorIPN32pxrInternal_v0_24__pxrReserved__27HgiShaderFunctionBufferDescESt6vectorIS2_SaIS2_EEEC2ERKS3_(ptr noundef nonnull align 8 dereferenceable(8) %2, ptr noundef nonnull align 8 dereferenceable(8) %6) #10
  %7 = getelementptr inbounds nuw %"class.__gnu_cxx::__normal_iterator.26", ptr %2, i32 0, i32 0
  %8 = load ptr, ptr %7, align 8
  ret ptr %8
}

; Function Attrs: mustprogress nounwind uwtable
define linkonce_odr void @_ZNSt16allocator_traitsISaIN32pxrInternal_v0_24__pxrReserved__27HgiShaderFunctionBufferDescEEE9constructIS1_JS1_EEEvRS2_PT_DpOT0_(ptr noundef nonnull align 1 dereferenceable(1) %0, ptr noundef %1, ptr noundef nonnull align 8 dereferenceable(77) %2) #0 comdat align 2 {
  %4 = alloca ptr, align 8
  %5 = alloca ptr, align 8
  %6 = alloca ptr, align 8
  store ptr %0, ptr %4, align 8
  store ptr %1, ptr %5, align 8
  store ptr %2, ptr %6, align 8
  %7 = load ptr, ptr %4, align 8
  %8 = load ptr, ptr %5, align 8
  %9 = load ptr, ptr %6, align 8
  call void @_ZNSt15__new_allocatorIN32pxrInternal_v0_24__pxrReserved__27HgiShaderFunctionBufferDescEE9constructIS1_JS1_EEEvPT_DpOT0_(ptr noundef nonnull align 1 dereferenceable(1) %7, ptr noundef %8, ptr noundef nonnull align 8 dereferenceable(77) %9) #10
  ret void
}

; Function Attrs: mustprogress uwtable
define linkonce_odr noundef nonnull align 8 dereferenceable(77) ptr @_ZNSt6vectorIN32pxrInternal_v0_24__pxrReserved__27HgiShaderFunctionBufferDescESaIS1_EE12emplace_backIJS1_EEERS1_DpOT_(ptr noundef nonnull align 8 dereferenceable(24) %0, ptr noundef nonnull align 8 dereferenceable(77) %1) #2 comdat align 2 {
  %3 = alloca ptr, align 8
  %4 = alloca ptr, align 8
  %5 = alloca %"class.__gnu_cxx::__normal_iterator.26", align 8
  store ptr %0, ptr %3, align 8
  store ptr %1, ptr %4, align 8
  %6 = load ptr, ptr %3, align 8
  %7 = getelementptr inbounds nuw %"struct.std::_Vector_base.9", ptr %6, i32 0, i32 0
  %8 = getelementptr inbounds nuw %"struct.std::_Vector_base<pxrInternal_v0_24__pxrReserved__::HgiShaderFunctionBufferDesc, std::allocator<pxrInternal_v0_24__pxrReserved__::HgiShaderFunctionBufferDesc>>::_Vector_impl_data", ptr %7, i32 0, i32 1
  %9 = load ptr, ptr %8, align 8
  %10 = getelementptr inbounds nuw %"struct.std::_Vector_base.9", ptr %6, i32 0, i32 0
  %11 = getelementptr inbounds nuw %"struct.std::_Vector_base<pxrInternal_v0_24__pxrReserved__::HgiShaderFunctionBufferDesc, std::allocator<pxrInternal_v0_24__pxrReserved__::HgiShaderFunctionBufferDesc>>::_Vector_impl_data", ptr %10, i32 0, i32 2
  %12 = load ptr, ptr %11, align 8
  %13 = icmp ne ptr %9, %12
  br i1 %13, label %14, label %24

14:                                               ; preds = %2
  %15 = getelementptr inbounds nuw %"struct.std::_Vector_base.9", ptr %6, i32 0, i32 0
  %16 = getelementptr inbounds nuw %"struct.std::_Vector_base.9", ptr %6, i32 0, i32 0
  %17 = getelementptr inbounds nuw %"struct.std::_Vector_base<pxrInternal_v0_24__pxrReserved__::HgiShaderFunctionBufferDesc, std::allocator<pxrInternal_v0_24__pxrReserved__::HgiShaderFunctionBufferDesc>>::_Vector_impl_data", ptr %16, i32 0, i32 1
  %18 = load ptr, ptr %17, align 8
  %19 = load ptr, ptr %4, align 8
  call void @_ZNSt16allocator_traitsISaIN32pxrInternal_v0_24__pxrReserved__27HgiShaderFunctionBufferDescEEE9constructIS1_JS1_EEEvRS2_PT_DpOT0_(ptr noundef nonnull align 1 dereferenceable(1) %15, ptr noundef %18, ptr noundef nonnull align 8 dereferenceable(77) %19) #10
  %20 = getelementptr inbounds nuw %"struct.std::_Vector_base.9", ptr %6, i32 0, i32 0
  %21 = getelementptr inbounds nuw %"struct.std::_Vector_base<pxrInternal_v0_24__pxrReserved__::HgiShaderFunctionBufferDesc, std::allocator<pxrInternal_v0_24__pxrReserved__::HgiShaderFunctionBufferDesc>>::_Vector_impl_data", ptr %20, i32 0, i32 1
  %22 = load ptr, ptr %21, align 8
  %23 = getelementptr inbounds %"struct.pxrInternal_v0_24__pxrReserved__::HgiShaderFunctionBufferDesc", ptr %22, i32 1
  store ptr %23, ptr %21, align 8
  br label %30

24:                                               ; preds = %2
  %25 = call ptr @_ZNSt6vectorIN32pxrInternal_v0_24__pxrReserved__27HgiShaderFunctionBufferDescESaIS1_EE3endEv(ptr noundef nonnull align 8 dereferenceable(24) %6) #10
  %26 = getelementptr inbounds nuw %"class.__gnu_cxx::__normal_iterator.26", ptr %5, i32 0, i32 0
  store ptr %25, ptr %26, align 8
  %27 = load ptr, ptr %4, align 8
  %28 = getelementptr inbounds nuw %"class.__gnu_cxx::__normal_iterator.26", ptr %5, i32 0, i32 0
  %29 = load ptr, ptr %28, align 8
  call void @_ZNSt6vectorIN32pxrInternal_v0_24__pxrReserved__27HgiShaderFunctionBufferDescESaIS1_EE17_M_realloc_insertIJS1_EEEvN9__gnu_cxx17__normal_iteratorIPS1_S3_EEDpOT_(ptr noundef nonnull align 8 dereferenceable(24) %6, ptr %29, ptr noundef nonnull align 8 dereferenceable(77) %27)
  br label %30

30:                                               ; preds = %24, %14
  %31 = call noundef nonnull align 8 dereferenceable(77) ptr @_ZNSt6vectorIN32pxrInternal_v0_24__pxrReserved__27HgiShaderFunctionBufferDescESaIS1_EE4backEv(ptr noundef nonnull align 8 dereferenceable(24) %6) #10
  ret ptr %31
}

; Function Attrs: mustprogress nounwind uwtable
define linkonce_odr void @_ZN32pxrInternal_v0_24__pxrReserved__27HgiShaderFunctionBufferDescD2Ev(ptr noundef nonnull align 8 dereferenceable(77) %0) unnamed_addr #0 comdat align 2 {
  %2 = alloca ptr, align 8
  store ptr %0, ptr %2, align 8
  %3 = load ptr, ptr %2, align 8
  %4 = getelementptr inbounds nuw %"struct.pxrInternal_v0_24__pxrReserved__::HgiShaderFunctionBufferDesc", ptr %3, i32 0, i32 1
  call void @_ZNSt7__cxx1112basic_stringIcSt11char_traitsIcESaIcEED1Ev(ptr noundef nonnull align 8 dereferenceable(32) %4) #10
  %5 = getelementptr inbounds nuw %"struct.pxrInternal_v0_24__pxrReserved__::HgiShaderFunctionBufferDesc", ptr %3, i32 0, i32 0
  call void @_ZNSt7__cxx1112basic_stringIcSt11char_traitsIcESaIcEED1Ev(ptr noundef nonnull align 8 dereferenceable(32) %5) #10
  ret void
}

; Function Attrs: mustprogress uwtable
define linkonce_odr void @_ZNSt6vectorIN32pxrInternal_v0_24__pxrReserved__27HgiShaderFunctionBufferDescESaIS1_EE9push_backEOS1_(ptr noundef nonnull align 8 dereferenceable(24) %0, ptr noundef nonnull align 8 dereferenceable(77) %1) #2 comdat align 2 {
  %3 = alloca ptr, align 8
  %4 = alloca ptr, align 8
  store ptr %0, ptr %3, align 8
  store ptr %1, ptr %4, align 8
  %5 = load ptr, ptr %3, align 8
  %6 = load ptr, ptr %4, align 8
  %7 = call noundef nonnull align 8 dereferenceable(77) ptr @_ZNSt6vectorIN32pxrInternal_v0_24__pxrReserved__27HgiShaderFunctionBufferDescESaIS1_EE12emplace_backIJS1_EEERS1_DpOT_(ptr noundef nonnull align 8 dereferenceable(24) %5, ptr noundef nonnull align 8 dereferenceable(77) %6)
  ret void
}

; Function Attrs: mustprogress uwtable
define void @_ZN32pxrInternal_v0_24__pxrReserved__34HgiShaderFunctionAddWritableBufferEPNS_21HgiShaderFunctionDescERKNSt7__cxx1112basic_stringIcSt11char_traitsIcESaIcEEES9_j(ptr noundef %0, ptr noundef nonnull align 8 dereferenceable(32) %1, ptr noundef nonnull align 8 dereferenceable(32) %2, i32 noundef %3) #2 personality ptr @__gxx_personality_v0 {
  %5 = alloca ptr, align 8
  %6 = alloca ptr, align 8
  %7 = alloca ptr, align 8
  %8 = alloca i32, align 4
  %9 = alloca %"struct.pxrInternal_v0_24__pxrReserved__::HgiShaderFunctionBufferDesc", align 8
  %10 = alloca ptr, align 8
  %11 = alloca i32, align 4
  store ptr %0, ptr %5, align 8
  store ptr %1, ptr %6, align 8
  store ptr %2, ptr %7, align 8
  store i32 %3, ptr %8, align 4
  call void @_ZN32pxrInternal_v0_24__pxrReserved__27HgiShaderFunctionBufferDescC1Ev(ptr noundef nonnull align 8 dereferenceable(77) %9)
  %12 = load ptr, ptr %6, align 8
  %13 = getelementptr inbounds nuw %"struct.pxrInternal_v0_24__pxrReserved__::HgiShaderFunctionBufferDesc", ptr %9, i32 0, i32 0
  %14 = invoke noundef nonnull align 8 dereferenceable(32) ptr @_ZNSt7__cxx1112basic_stringIcSt11char_traitsIcESaIcEEaSERKS4_(ptr noundef nonnull align 8 dereferenceable(32) %13, ptr noundef nonnull align 8 dereferenceable(32) %12)
          to label %15 unwind label %27

15:                                               ; preds = %4
  %16 = load ptr, ptr %7, align 8
  %17 = getelementptr inbounds nuw %"struct.pxrInternal_v0_24__pxrReserved__::HgiShaderFunctionBufferDesc", ptr %9, i32 0, i32 1
  %18 = invoke noundef nonnull align 8 dereferenceable(32) ptr @_ZNSt7__cxx1112basic_stringIcSt11char_traitsIcESaIcEEaSERKS4_(ptr noundef nonnull align 8 dereferenceable(32) %17, ptr noundef nonnull align 8 dereferenceable(32) %16)
          to label %19 unwind label %27

19:                                               ; preds = %15
  %20 = load i32, ptr %8, align 4
  %21 = getelementptr inbounds nuw %"struct.pxrInternal_v0_24__pxrReserved__::HgiShaderFunctionBufferDesc", ptr %9, i32 0, i32 2
  store i32 %20, ptr %21, align 8
  %22 = getelementptr inbounds nuw %"struct.pxrInternal_v0_24__pxrReserved__::HgiShaderFunctionBufferDesc", ptr %9, i32 0, i32 4
  store i32 4, ptr %22, align 8
  %23 = getelementptr inbounds nuw %"struct.pxrInternal_v0_24__pxrReserved__::HgiShaderFunctionBufferDesc", ptr %9, i32 0, i32 5
  store i8 1, ptr %23, align 4
  %24 = load ptr, ptr %5, align 8
  %25 = getelementptr inbounds nuw %"struct.pxrInternal_v0_24__pxrReserved__::HgiShaderFunctionDesc", ptr %24, i32 0, i32 7
  invoke void @_ZNSt6vectorIN32pxrInternal_v0_24__pxrReserved__27HgiShaderFunctionBufferDescESaIS1_EE9push_backEOS1_(ptr noundef nonnull align 8 dereferenceable(24) %25, ptr noundef nonnull align 8 dereferenceable(77) %9)
          to label %26 unwind label %27

26:                                               ; preds = %19
  call void @_ZN32pxrInternal_v0_24__pxrReserved__27HgiShaderFunctionBufferDescD2Ev(ptr noundef nonnull align 8 dereferenceable(77) %9) #10
  ret void

27:                                               ; preds = %19, %15, %4
  %28 = landingpad { ptr, i32 }
          cleanup
  %29 = extractvalue { ptr, i32 } %28, 0
  store ptr %29, ptr %10, align 8
  %30 = extractvalue { ptr, i32 } %28, 1
  store i32 %30, ptr %11, align 4
  call void @_ZN32pxrInternal_v0_24__pxrReserved__27HgiShaderFunctionBufferDescD2Ev(ptr noundef nonnull align 8 dereferenceable(77) %9) #10
  br label %31

31:                                               ; preds = %27
  %32 = load ptr, ptr %10, align 8
  %33 = load i32, ptr %11, align 4
  %34 = insertvalue { ptr, i32 } poison, ptr %32, 0
  %35 = insertvalue { ptr, i32 } %34, i32 %33, 1
  resume { ptr, i32 } %35
}