; Function Attrs: mustprogress uwtable
define void @_ZN32pxrInternal_v0_24__pxrReserved__34HgiShaderFunctionAddWritableBufferEPNS_21HgiShaderFunctionDescERKNSt7__cxx1112basic_stringIcSt11char_traitsIcESaIcEEES9_j(ptr noundef %0, ptr noundef nonnull align 8 dereferenceable(32) %1, ptr noundef nonnull align 8 dereferenceable(32) %2, i32 noundef %3) local_unnamed_addr #3 personality ptr @__gxx_personality_v0 {
  %5 = alloca %"struct.pxrInternal_v0_24__pxrReserved__::HgiShaderFunctionBufferDesc", align 8
  call void @_ZN32pxrInternal_v0_24__pxrReserved__27HgiShaderFunctionBufferDescC1Ev(ptr noundef nonnull align 8 dereferenceable(77) %5)
  %6 = invoke noundef nonnull align 8 dereferenceable(32) ptr @_ZNSt7__cxx1112basic_stringIcSt11char_traitsIcESaIcEEaSERKS4_(ptr noundef nonnull align 8 dereferenceable(32) %5, ptr noundef nonnull align 8 dereferenceable(32) %1)
          to label %7 unwind label %25

7:                                                ; preds = %4
  %8 = getelementptr inbounds nuw i8, ptr %5, i64 32
  %9 = invoke noundef nonnull align 8 dereferenceable(32) ptr @_ZNSt7__cxx1112basic_stringIcSt11char_traitsIcESaIcEEaSERKS4_(ptr noundef nonnull align 8 dereferenceable(32) %8, ptr noundef nonnull align 8 dereferenceable(32) %2)
          to label %10 unwind label %25

10:                                               ; preds = %7
  %11 = getelementptr inbounds nuw i8, ptr %5, i64 64
  store i32 %3, ptr %11, align 8
  %12 = getelementptr inbounds nuw i8, ptr %5, i64 72
  store i32 4, ptr %12, align 8
  %13 = getelementptr inbounds nuw i8, ptr %5, i64 76
  store i8 1, ptr %13, align 4
  %14 = getelementptr inbounds nuw i8, ptr %0, i64 96
  %15 = load ptr, ptr %14, align 8
  %16 = getelementptr inbounds nuw i8, ptr %0, i64 104
  %17 = load ptr, ptr %16, align 8
  %.not.i.i = icmp eq ptr %15, %17
  br i1 %.not.i.i, label %23, label %18

18:                                               ; preds = %10
  call void @_ZNSt7__cxx1112basic_stringIcSt11char_traitsIcESaIcEEC1EOS4_(ptr noundef nonnull align 8 dereferenceable(77) %15, ptr noundef nonnull align 8 dereferenceable(77) %5) #16
  %19 = getelementptr inbounds nuw i8, ptr %15, i64 32
  call void @_ZNSt7__cxx1112basic_stringIcSt11char_traitsIcESaIcEEC1EOS4_(ptr noundef nonnull align 8 dereferenceable(32) %19, ptr noundef nonnull align 8 dereferenceable(32) %8) #16
  %20 = getelementptr inbounds nuw i8, ptr %15, i64 64
  call void @llvm.memcpy.p0.p0.i64(ptr noundef nonnull align 8 dereferenceable(13) %20, ptr noundef nonnull align 8 dereferenceable(13) %11, i64 13, i1 false)
  %21 = load ptr, ptr %14, align 8
  %22 = getelementptr inbounds nuw i8, ptr %21, i64 80
  store ptr %22, ptr %14, align 8
  br label %_ZNSt6vectorIN32pxrInternal_v0_24__pxrReserved__27HgiShaderFunctionBufferDescESaIS1_EE9push_backEOS1_.exit

23:                                               ; preds = %10
  %24 = getelementptr inbounds nuw i8, ptr %0, i64 88
  invoke void @_ZNSt6vectorIN32pxrInternal_v0_24__pxrReserved__27HgiShaderFunctionBufferDescESaIS1_EE17_M_realloc_insertIJS1_EEEvN9__gnu_cxx17__normal_iteratorIPS1_S3_EEDpOT_(ptr noundef nonnull align 8 dereferenceable(24) %24, ptr %15, ptr noundef nonnull align 8 dereferenceable(77) %5)
          to label %_ZNSt6vectorIN32pxrInternal_v0_24__pxrReserved__27HgiShaderFunctionBufferDescESaIS1_EE9push_backEOS1_.exit unwind label %25

_ZNSt6vectorIN32pxrInternal_v0_24__pxrReserved__27HgiShaderFunctionBufferDescESaIS1_EE9push_backEOS1_.exit: ; preds = %18, %23
  call void @_ZNSt7__cxx1112basic_stringIcSt11char_traitsIcESaIcEED1Ev(ptr noundef nonnull align 8 dereferenceable(32) %8) #16
  call void @_ZNSt7__cxx1112basic_stringIcSt11char_traitsIcESaIcEED1Ev(ptr noundef nonnull align 8 dereferenceable(77) %5) #16
  ret void

25:                                               ; preds = %23, %7, %4
  %26 = landingpad { ptr, i32 }
          cleanup
  %27 = getelementptr inbounds nuw i8, ptr %5, i64 32
  call void @_ZNSt7__cxx1112basic_stringIcSt11char_traitsIcESaIcEED1Ev(ptr noundef nonnull align 8 dereferenceable(32) %27) #16
  call void @_ZNSt7__cxx1112basic_stringIcSt11char_traitsIcESaIcEED1Ev(ptr noundef nonnull align 8 dereferenceable(77) %5) #16
  resume { ptr, i32 } %26
}